target datalayout = "e-m:e-p270:32:32-p271:32:32-p272:64:64-i64:64-i128:128-f80:128-n8:16:32:64-S128"
target triple = "x86_64-pc-linux-gnu"

%"class.arrow::util::Float16" = type { i16 }

; Function Attrs: inlinehint mustprogress nounwind uwtable
define linkonce_odr noundef double @_ZN5arrow4util8SafeCopyIdmEENSt9enable_ifIXaaaasr3stdE23is_trivially_copyable_vIT0_Esr3stdE23is_trivially_copyable_vIT_EeqstS3_stS4_ES4_E4typeES3_(i64 noundef %0) #3 comdat {
  %2 = alloca i64, align 8
  %3 = alloca double, align 8
  store i64 %0, ptr %2, align 8, !tbaa !18
  call void @llvm.lifetime.start.p0(i64 8, ptr %3) #6
  call void @llvm.memcpy.p0.p0.i64(ptr align 8 %3, ptr align 1 %2, i64 8, i1 false)
  %4 = load double, ptr %3, align 8, !tbaa !21
  call void @llvm.lifetime.end.p0(i64 8, ptr %3) #6
  ret double %4
}

; Function Attrs: mustprogress nounwind uwtable
define internal noundef i64 @_ZN5arrow4util12_GLOBAL__N_115BinaryConverterImE12FromBinary16Et(i16 noundef zeroext %0) #2 align 2 {
  %2 = alloca i64, align 8
  %3 = alloca i16, align 2
  %4 = alloca i64, align 8
  %5 = alloca i16, align 2
  %6 = alloca i16, align 2
  %7 = alloca i32, align 4
  %8 = alloca i64, align 8
  %9 = alloca i64, align 8
  store i16 %0, ptr %3, align 2, !tbaa !13
  call void @llvm.lifetime.start.p0(i64 8, ptr %4) #6
  %10 = load i16, ptr %3, align 2, !tbaa !13
  %11 = zext i16 %10 to i32
  %12 = and i32 %11, 32768
  %13 = zext i32 %12 to i64
  %14 = shl i64 %13, 48
  store i64 %14, ptr %4, align 8, !tbaa !18
  call void @llvm.lifetime.start.p0(i64 2, ptr %5) #6
  %15 = load i16, ptr %3, align 2, !tbaa !13
  %16 = zext i16 %15 to i32
  %17 = and i32 %16, 31744
  %18 = trunc i32 %17 to i16
  store i16 %18, ptr %5, align 2, !tbaa !13
  call void @llvm.lifetime.start.p0(i64 2, ptr %6) #6
  %19 = load i16, ptr %3, align 2, !tbaa !13
  %20 = zext i16 %19 to i32
  %21 = and i32 %20, 1023
  %22 = trunc i32 %21 to i16
  store i16 %22, ptr %6, align 2, !tbaa !13
  %23 = load i16, ptr %5, align 2, !tbaa !13
  %24 = zext i16 %23 to i32
  switch i32 %24, label %62 [
    i32 31744, label %25
    i32 0, label %32
  ]

25:                                               ; preds = %1
  %26 = load i64, ptr %4, align 8, !tbaa !18
  %27 = or i64 %26, 9218868437227405312
  %28 = load i16, ptr %6, align 2, !tbaa !13
  %29 = zext i16 %28 to i64
  %30 = shl i64 %29, 42
  %31 = or i64 %27, %30
  store i64 %31, ptr %2, align 8
  store i32 1, ptr %7, align 4
  br label %71

32:                                               ; preds = %1
  %33 = load i16, ptr %6, align 2, !tbaa !13
  %34 = zext i16 %33 to i32
  %35 = icmp eq i32 %34, 0
  br i1 %35, label %36, label %38

36:                                               ; preds = %32
  %37 = load i64, ptr %4, align 8, !tbaa !18
  store i64 %37, ptr %2, align 8
  store i32 1, ptr %7, align 4
  br label %71

38:                                               ; preds = %32
  call void @llvm.lifetime.start.p0(i64 8, ptr %8) #6
  store i64 1008, ptr %8, align 8, !tbaa !18
  call void @llvm.lifetime.start.p0(i64 8, ptr %9) #6
  %39 = load i16, ptr %6, align 2, !tbaa !13
  %40 = zext i16 %39 to i64
  %41 = shl i64 %40, 1
  store i64 %41, ptr %9, align 8, !tbaa !18
  br label %42

42:                                               ; preds = %46, %38
  %43 = load i64, ptr %9, align 8, !tbaa !18
  %44 = and i64 %43, 1024
  %45 = icmp eq i64 %44, 0
  br i1 %45, label %46, label %51

46:                                               ; preds = %42
  %47 = load i64, ptr %8, align 8, !tbaa !18
  %48 = add i64 %47, -1
  store i64 %48, ptr %8, align 8, !tbaa !18
  %49 = load i64, ptr %9, align 8, !tbaa !18
  %50 = shl i64 %49, 1
  store i64 %50, ptr %9, align 8, !tbaa !18
  br label %42, !llvm.loop !20

51:                                               ; preds = %42
  %52 = load i64, ptr %8, align 8, !tbaa !18
  %53 = shl i64 %52, 52
  store i64 %53, ptr %8, align 8, !tbaa !18
  %54 = load i64, ptr %9, align 8, !tbaa !18
  %55 = and i64 %54, 1023
  %56 = shl i64 %55, 42
  store i64 %56, ptr %9, align 8, !tbaa !18
  %57 = load i64, ptr %4, align 8, !tbaa !18
  %58 = load i64, ptr %8, align 8, !tbaa !18
  %59 = or i64 %57, %58
  %60 = load i64, ptr %9, align 8, !tbaa !18
  %61 = or i64 %59, %60
  store i64 %61, ptr %2, align 8
  store i32 1, ptr %7, align 4
  call void @llvm.lifetime.end.p0(i64 8, ptr %9) #6
  call void @llvm.lifetime.end.p0(i64 8, ptr %8) #6
  br label %71

62:                                               ; preds = %1
  %63 = load i64, ptr %4, align 8, !tbaa !18
  %64 = load i16, ptr %3, align 2, !tbaa !13
  %65 = zext i16 %64 to i32
  %66 = and i32 %65, 32767
  %67 = zext i32 %66 to i64
  %68 = add i64 %67, 1032192
  %69 = shl i64 %68, 42
  %70 = or i64 %63, %69
  store i64 %70, ptr %2, align 8
  store i32 1, ptr %7, align 4
  br label %71

71:                                               ; preds = %62, %51, %36, %25
  call void @llvm.lifetime.end.p0(i64 2, ptr %6) #6
  call void @llvm.lifetime.end.p0(i64 2, ptr %5) #6
  call void @llvm.lifetime.end.p0(i64 8, ptr %4) #6
  %72 = load i64, ptr %2, align 8
  ret i64 %72
}

; Function Attrs: mustprogress uwtable
define noundef double @_ZNK5arrow4util7Float168ToDoubleEv(ptr noundef nonnull align 2 dereferenceable(2) %0) #0 align 2 {
  %2 = alloca ptr, align 8
  %3 = alloca i64, align 8
  store ptr %0, ptr %2, align 8, !tbaa !3
  %4 = load ptr, ptr %2, align 8
  call void @llvm.lifetime.start.p0(i64 8, ptr %3) #6
  %5 = getelementptr inbounds nuw %"class.arrow::util::Float16", ptr %4, i32 0, i32 0
  %6 = load i16, ptr %5, align 2, !tbaa !8
  %7 = call noundef i64 @_ZN5arrow4util12_GLOBAL__N_115BinaryConverterImE12FromBinary16Et(i16 noundef zeroext %6)
  store i64 %7, ptr %3, align 8, !tbaa !18
  %8 = load i64, ptr %3, align 8, !tbaa !18
  %9 = call noundef double @_ZN5arrow4util8SafeCopyIdmEENSt9enable_ifIXaaaasr3stdE23is_trivially_copyable_vIT0_Esr3stdE23is_trivially_copyable_vIT_EeqstS3_stS4_ES4_E4typeES3_(i64 noundef %8)
  call void @llvm.lifetime.end.p0(i64 8, ptr %3) #6
  ret double %9
}