; Function Attrs: mustprogress nofree norecurse nosync nounwind willreturn memory(argmem: read) uwtable
define noundef double @_ZNK5arrow4util7Float168ToDoubleEv(ptr noundef nonnull readonly align 2 captures(none) dereferenceable(2) %0) local_unnamed_addr #0 align 2 {
  %2 = load i16, ptr %0, align 2, !tbaa !3
  %3 = zext i16 %2 to i32
  %4 = and i32 %3, 32768
  %5 = zext nneg i32 %4 to i64
  %6 = shl nuw i64 %5, 48
  %7 = and i16 %2, 31744
  %8 = and i16 %2, 1023
  switch i16 %7, label %29 [
    i16 31744, label %9
    i16 0, label %14
  ]

9:                                                ; preds = %1
  %10 = zext i16 %2 to i64
  %11 = shl nuw nsw i64 %10, 42
  %12 = or disjoint i64 %6, %11
  %13 = or i64 %12, 9218868437227405312
  br label %_ZN5arrow4util12_GLOBAL__N_115BinaryConverterImE12FromBinary16Et.exit

14:                                               ; preds = %1
  %15 = icmp eq i16 %8, 0
  br i1 %15, label %_ZN5arrow4util12_GLOBAL__N_115BinaryConverterImE12FromBinary16Et.exit, label %16

16:                                               ; preds = %14
  %17 = shl nuw nsw i16 %8, 1
  %18 = zext nneg i16 %17 to i64
  %19 = icmp samesign ult i16 %8, 512
  br i1 %19, label %.lr.ph.i, label %._crit_edge.i

.lr.ph.i:                                         ; preds = %16, %.lr.ph.i
  %.023.i = phi i64 [ %21, %.lr.ph.i ], [ %18, %16 ]
  %.02022.i = phi i64 [ %20, %.lr.ph.i ], [ 1008, %16 ]
  %20 = add i64 %.02022.i, -1
  %21 = shl i64 %.023.i, 1
  %22 = and i64 %.023.i, 512
  %23 = icmp eq i64 %22, 0
  br i1 %23, label %.lr.ph.i, label %._crit_edge.loopexit.i, !llvm.loop !10

._crit_edge.loopexit.i:                           ; preds = %.lr.ph.i
  %24 = shl i64 %20, 52
  br label %._crit_edge.i

._crit_edge.i:                                    ; preds = %._crit_edge.loopexit.i, %16
  %.020.lcssa.i = phi i64 [ 4539628424389459968, %16 ], [ %24, %._crit_edge.loopexit.i ]
  %.0.lcssa.i = phi i64 [ %18, %16 ], [ %21, %._crit_edge.loopexit.i ]
  %25 = shl i64 %.0.lcssa.i, 42
  %26 = and i64 %25, 4494803534348288
  %27 = or disjoint i64 %.020.lcssa.i, %26
  %28 = or i64 %27, %6
  br label %_ZN5arrow4util12_GLOBAL__N_115BinaryConverterImE12FromBinary16Et.exit

29:                                               ; preds = %1
  %30 = and i32 %3, 32767
  %narrow.i = add nuw nsw i32 %30, 1032192
  %31 = zext nneg i32 %narrow.i to i64
  %32 = shl nuw nsw i64 %31, 42
  %33 = or disjoint i64 %32, %6
  br label %_ZN5arrow4util12_GLOBAL__N_115BinaryConverterImE12FromBinary16Et.exit

_ZN5arrow4util12_GLOBAL__N_115BinaryConverterImE12FromBinary16Et.exit: ; preds = %9, %14, %._crit_edge.i, %29
  %.021.i = phi i64 [ %33, %29 ], [ %28, %._crit_edge.i ], [ %13, %9 ], [ %6, %14 ]
  %34 = bitcast i64 %.021.i to double
  ret double %34
}